; Function Attrs: mustprogress uwtable
define dso_local void @_ZNK21btUniformScalingShape49batchedUnitVectorGetSupportingVertexWithoutMarginEPK9btVector3PS0_i(ptr nocapture noundef nonnull readonly align 8 dereferenceable(44) %this, ptr noundef %vectors, ptr noundef %supportVerticesOut, i32 noundef %numVectors) unnamed_addr #4 align 2 {
entry:
  %m_childConvexShape = getelementptr inbounds i8, ptr %this, i64 32
  %0 = load ptr, ptr %m_childConvexShape, align 8
  %vtable = load ptr, ptr %0, align 8
  %vfn = getelementptr inbounds i8, ptr %vtable, i64 152
  %1 = load ptr, ptr %vfn, align 8
  tail call void %1(ptr noundef nonnull align 8 dereferenceable(32) %0, ptr noundef %vectors, ptr noundef %supportVerticesOut, i32 noundef %numVectors)
  %cmp7 = icmp sgt i32 %numVectors, 0
  br i1 %cmp7, label %for.body.lr.ph, label %for.end

for.body.lr.ph:                                   ; preds = %entry
  %m_uniformScalingFactor = getelementptr inbounds i8, ptr %this, i64 40
  %wide.trip.count = zext nneg i32 %numVectors to i64
  br label %for.body

for.body:                                         ; preds = %for.body.lr.ph, %for.body
  %indvars.iv = phi i64 [ 0, %for.body.lr.ph ], [ %indvars.iv.next, %for.body ]
  %arrayidx = getelementptr inbounds %class.btVector3, ptr %supportVerticesOut, i64 %indvars.iv
  %2 = load float, ptr %m_uniformScalingFactor, align 8
  %3 = load <2 x float>, ptr %arrayidx, align 4
  %4 = insertelement <2 x float> poison, float %2, i64 0
  %5 = shufflevector <2 x float> %4, <2 x float> poison, <2 x i32> zeroinitializer
  %6 = fmul <2 x float> %5, %3
  %arrayidx7.i = getelementptr inbounds i8, ptr %arrayidx, i64 8
  %7 = load float, ptr %arrayidx7.i, align 4
  %mul8.i = fmul float %2, %7
  %retval.sroa.3.12.vec.insert.i = insertelement <2 x float> <float poison, float 0.000000e+00>, float %mul8.i, i64 0
  store <2 x float> %6, ptr %arrayidx, align 4
  store <2 x float> %retval.sroa.3.12.vec.insert.i, ptr %arrayidx7.i, align 4
  %indvars.iv.next = add nuw nsw i64 %indvars.iv, 1
  %exitcond.not = icmp eq i64 %indvars.iv.next, %wide.trip.count
  br i1 %exitcond.not, label %for.end, label %for.body, !llvm.loop !5

for.end:                                          ; preds = %for.body, %entry
  ret void
}